target datalayout = "e-m:e-p270:32:32-p271:32:32-p272:64:64-i64:64-i128:128-f80:128-n8:16:32:64-S128"
target triple = "x86_64-pc-linux-gnu"

@stderr = external global ptr, align 8
@.str.43 = private unnamed_addr constant [19 x i8] c"host list is empty\00", align 1
@.str.44 = private unnamed_addr constant [22 x i8] c"Invalid hostlist: %s\0A\00", align 1
@.str.45 = private unnamed_addr constant [4 x i8] c"%s\0A\00", align 1

; Function Attrs: nounwind uwtable
define dso_local void @scontrol_print_hosts(ptr noundef %0) #0 {
  %2 = alloca ptr, align 8
  %3 = alloca ptr, align 8
  %4 = alloca ptr, align 8
  %5 = alloca i32, align 4
  store ptr %0, ptr %2, align 8
  call void @llvm.lifetime.start.p0(i64 8, ptr %3) #9
  call void @llvm.lifetime.start.p0(i64 8, ptr %4) #9
  %6 = load ptr, ptr %2, align 8
  %7 = icmp ne ptr %6, null
  br i1 %7, label %10, label %8

8:                                                ; preds = %1
  %9 = call i32 (ptr, ...) @error(ptr noundef @.str.43)
  store i32 1, ptr %5, align 4
  br label %30

10:                                               ; preds = %1
  %11 = load ptr, ptr %2, align 8
  %12 = call ptr @hostlist_create_dims(ptr noundef %11, i32 noundef 0)
  store ptr %12, ptr %3, align 8
  %13 = load ptr, ptr %3, align 8
  %14 = icmp ne ptr %13, null
  br i1 %14, label %19, label %15

15:                                               ; preds = %10
  %16 = load ptr, ptr @stderr, align 8
  %17 = load ptr, ptr %2, align 8
  %18 = call i32 (ptr, ptr, ...) @fprintf(ptr noundef %16, ptr noundef @.str.44, ptr noundef %17) #9
  store i32 1, ptr %5, align 4
  br label %30

19:                                               ; preds = %10
  br label %20

20:                                               ; preds = %24, %19
  %21 = load ptr, ptr %3, align 8
  %22 = call ptr @hostlist_shift_dims(ptr noundef %21, i32 noundef 0)
  store ptr %22, ptr %4, align 8
  %23 = icmp ne ptr %22, null
  br i1 %23, label %24, label %28

24:                                               ; preds = %20
  %25 = load ptr, ptr %4, align 8
  %26 = call i32 (ptr, ...) @printf(ptr noundef @.str.45, ptr noundef %25)
  %27 = load ptr, ptr %4, align 8
  call void @free(ptr noundef %27) #9
  br label %20, !llvm.loop !24

28:                                               ; preds = %20
  %29 = load ptr, ptr %3, align 8
  call void @hostlist_destroy(ptr noundef %29)
  store i32 0, ptr %5, align 4
  br label %30

30:                                               ; preds = %28, %15, %8
  call void @llvm.lifetime.end.p0(i64 8, ptr %4) #9
  call void @llvm.lifetime.end.p0(i64 8, ptr %3) #9
  %31 = load i32, ptr %5, align 4
  switch i32 %31, label %33 [
    i32 0, label %32
    i32 1, label %32
  ]

32:                                               ; preds = %30, %30
  ret void

33:                                               ; preds = %30
  unreachable
}