; Function Attrs: nounwind uwtable
define dso_local void @scontrol_print_hosts(ptr noundef %0) local_unnamed_addr #0 {
  %.not = icmp eq ptr %0, null
  br i1 %.not, label %2, label %4

2:                                                ; preds = %1
  %3 = tail call i32 (ptr, ...) @error(ptr noundef nonnull @.str.43) #16
  br label %12

4:                                                ; preds = %1
  %5 = tail call ptr @hostlist_create_dims(ptr noundef nonnull %0, i32 noundef 0) #16
  %.not9 = icmp eq ptr %5, null
  br i1 %.not9, label %7, label %.preheader

.preheader:                                       ; preds = %4
  %6 = tail call ptr @hostlist_shift_dims(ptr noundef nonnull %5, i32 noundef 0) #16
  %.not1011 = icmp eq ptr %6, null
  br i1 %.not1011, label %._crit_edge, label %.lr.ph

7:                                                ; preds = %4
  %8 = load ptr, ptr @stderr, align 8
  %9 = tail call i32 (ptr, ptr, ...) @fprintf(ptr noundef %8, ptr noundef nonnull @.str.44, ptr noundef nonnull %0) #20
  br label %12

.lr.ph:                                           ; preds = %.preheader, %.lr.ph
  %10 = phi ptr [ %11, %.lr.ph ], [ %6, %.preheader ]
  %puts = tail call i32 @puts(ptr nonnull dereferenceable(1) %10)
  tail call void @free(ptr noundef nonnull %10) #16
  %11 = tail call ptr @hostlist_shift_dims(ptr noundef nonnull %5, i32 noundef 0) #16
  %.not10 = icmp eq ptr %11, null
  br i1 %.not10, label %._crit_edge, label %.lr.ph, !llvm.loop !28

._crit_edge:                                      ; preds = %.lr.ph, %.preheader
  tail call void @hostlist_destroy(ptr noundef nonnull %5) #16
  br label %12

12:                                               ; preds = %._crit_edge, %7, %2
  ret void
}